target datalayout = "e-m:e-p270:32:32-p271:32:32-p272:64:64-i64:64-i128:128-f80:128-n8:16:32:64-S128"
target triple = "x86_64-pc-linux-gnu"

@init_pow2table.exp2_tab = internal constant [2 x float] [float 1.000000e+00, float 0x3FF6A09E60000000], align 4
@pow2tab = internal global [127 x float] zeroinitializer, align 16
@rootpow2tab = internal global [127 x float] zeroinitializer, align 16

; Function Attrs: cold nounwind optsize uwtable
define internal void @init_pow2table() #0 {
  %1 = alloca i32, align 4
  %2 = alloca float, align 4
  %3 = alloca float, align 4
  call void @llvm.lifetime.start.p0(i64 4, ptr %1) #11
  call void @llvm.lifetime.start.p0(i64 4, ptr %2) #11
  %4 = call nsz float @llvm.pow.f32(float 2.000000e+00, float -6.300000e+01)
  store float %4, ptr %2, align 4, !tbaa !108
  call void @llvm.lifetime.start.p0(i64 4, ptr %3) #11
  %5 = call nsz float @llvm.pow.f32(float 2.000000e+00, float -3.200000e+01)
  store float %5, ptr %3, align 4, !tbaa !108
  store i32 -63, ptr %1, align 4, !tbaa !31
  br label %6

6:                                                ; preds = %35, %0
  %7 = load i32, ptr %1, align 4, !tbaa !31
  %8 = icmp slt i32 %7, 64
  br i1 %8, label %9, label %38

9:                                                ; preds = %6
  %10 = load i32, ptr %1, align 4, !tbaa !31
  %11 = and i32 %10, 1
  %12 = icmp ne i32 %11, 0
  br i1 %12, label %16, label %13

13:                                               ; preds = %9
  %14 = load float, ptr %3, align 4, !tbaa !108
  %15 = fmul nsz float %14, 2.000000e+00
  store float %15, ptr %3, align 4, !tbaa !108
  br label %16

16:                                               ; preds = %13, %9
  %17 = load float, ptr %2, align 4, !tbaa !108
  %18 = load i32, ptr %1, align 4, !tbaa !31
  %19 = add nsw i32 63, %18
  %20 = sext i32 %19 to i64
  %21 = getelementptr inbounds [127 x float], ptr @pow2tab, i64 0, i64 %20
  store float %17, ptr %21, align 4, !tbaa !108
  %22 = load float, ptr %3, align 4, !tbaa !108
  %23 = load i32, ptr %1, align 4, !tbaa !31
  %24 = and i32 %23, 1
  %25 = sext i32 %24 to i64
  %26 = getelementptr inbounds [2 x float], ptr @init_pow2table.exp2_tab, i64 0, i64 %25
  %27 = load float, ptr %26, align 4, !tbaa !108
  %28 = fmul nsz float %22, %27
  %29 = load i32, ptr %1, align 4, !tbaa !31
  %30 = add nsw i32 63, %29
  %31 = sext i32 %30 to i64
  %32 = getelementptr inbounds [127 x float], ptr @rootpow2tab, i64 0, i64 %31
  store float %28, ptr %32, align 4, !tbaa !108
  %33 = load float, ptr %2, align 4, !tbaa !108
  %34 = fmul nsz float %33, 2.000000e+00
  store float %34, ptr %2, align 4, !tbaa !108
  br label %35

35:                                               ; preds = %16
  %36 = load i32, ptr %1, align 4, !tbaa !31
  %37 = add nsw i32 %36, 1
  store i32 %37, ptr %1, align 4, !tbaa !31
  br label %6, !llvm.loop !109

38:                                               ; preds = %6
  call void @llvm.lifetime.end.p0(i64 4, ptr %3) #11
  call void @llvm.lifetime.end.p0(i64 4, ptr %2) #11
  call void @llvm.lifetime.end.p0(i64 4, ptr %1) #11
  ret void
}