; Function Attrs: cold nofree norecurse nosync nounwind optsize memory(write, argmem: none, inaccessiblemem: none) uwtable
define internal void @init_pow2table() #4 {
  br label %1

1:                                                ; preds = %0, %1
  %indvars.iv = phi i64 [ -63, %0 ], [ %indvars.iv.next, %1 ]
  %.013 = phi float [ 0x3DF0000000000000, %0 ], [ %.1, %1 ]
  %.0912 = phi float [ 0x3C00000000000000, %0 ], [ %11, %1 ]
  %2 = and i64 %indvars.iv, 1
  %.not = icmp eq i64 %2, 0
  %3 = fmul nsz float %.013, 2.000000e+00
  %.1 = select nsz i1 %.not, float %3, float %.013
  %4 = add nsw i64 %indvars.iv, 63
  %5 = getelementptr inbounds [127 x float], ptr @pow2tab, i64 0, i64 %4
  store float %.0912, ptr %5, align 4, !tbaa !66
  %6 = and i64 %indvars.iv, 1
  %7 = getelementptr inbounds nuw [2 x float], ptr @init_pow2table.exp2_tab, i64 0, i64 %6
  %8 = load float, ptr %7, align 4, !tbaa !66
  %9 = fmul nsz float %.1, %8
  %10 = getelementptr inbounds [127 x float], ptr @rootpow2tab, i64 0, i64 %4
  store float %9, ptr %10, align 4, !tbaa !66
  %11 = fmul nsz float %.0912, 2.000000e+00
  %indvars.iv.next = add nsw i64 %indvars.iv, 1
  %exitcond.not = icmp eq i64 %indvars.iv.next, 64
  br i1 %exitcond.not, label %12, label %1, !llvm.loop !107

12:                                               ; preds = %1
  ret void
}